; Function Attrs: mustprogress uwtable
define dso_local void @_ZN18cmCTestTestHandler13GetTestStatusB5cxx11ERKNS_17cmCTestTestResultE(ptr dead_on_unwind noalias writable sret(%"class.std::__cxx11::basic_string") align 8 %0, ptr nocapture nonnull readnone align 8 %1, ptr noundef nonnull align 8 dereferenceable(368) %2) local_unnamed_addr #3 align 2 personality ptr @__gxx_personality_v0 {
  %4 = alloca %"class.std::allocator", align 1
  %5 = alloca %"class.std::allocator", align 1
  %6 = getelementptr inbounds i8, ptr %2, i64 176
  %7 = load i32, ptr %6, align 8
  %or.cond = icmp ugt i32 %7, 9
  br i1 %or.cond, label %8, label %14

8:                                                ; preds = %3
  call void @_ZNSaIcEC1Ev(ptr noundef nonnull align 1 dereferenceable(1) %4) #25
  %9 = invoke noundef ptr @_ZNSt7__cxx1112basic_stringIcSt11char_traitsIcESaIcEE13_M_local_dataEv(ptr noundef nonnull align 8 dereferenceable(32) %0)
          to label %.noexc unwind label %12

.noexc:                                           ; preds = %8
  invoke void @_ZNSt7__cxx1112basic_stringIcSt11char_traitsIcESaIcEE12_Alloc_hiderC1EPcRKS3_(ptr noundef nonnull align 8 dereferenceable(8) %0, ptr noundef %9, ptr noundef nonnull align 1 dereferenceable(1) %4)
          to label %.noexc11 unwind label %12

.noexc11:                                         ; preds = %.noexc
  invoke void @_ZNSt7__cxx1112basic_stringIcSt11char_traitsIcESaIcEE12_M_constructIPKcEEvT_S8_St20forward_iterator_tag(ptr noundef nonnull align 8 dereferenceable(32) %0, ptr noundef nonnull @.str.171, ptr noundef nonnull getelementptr inbounds ([10 x i8], ptr @.str.171, i64 0, i64 9))
          to label %_ZNSt7__cxx1112basic_stringIcSt11char_traitsIcESaIcEEC2IS3_EEPKcRKS3_.exit unwind label %10

10:                                               ; preds = %.noexc11
  %11 = landingpad { ptr, i32 }
          cleanup
  call void @_ZNSaIcED2Ev(ptr noundef nonnull align 1 dereferenceable(1) %0) #25
  br label %.body

_ZNSt7__cxx1112basic_stringIcSt11char_traitsIcESaIcEEC2IS3_EEPKcRKS3_.exit: ; preds = %.noexc11
  call void @_ZNSaIcED1Ev(ptr noundef nonnull align 1 dereferenceable(1) %4) #25
  br label %29

12:                                               ; preds = %.noexc, %8
  %13 = landingpad { ptr, i32 }
          cleanup
  br label %.body

14:                                               ; preds = %3
  %15 = icmp eq i32 %7, 6
  br i1 %15, label %16, label %18

16:                                               ; preds = %14
  %17 = getelementptr inbounds i8, ptr %2, i64 184
  tail call void @_ZNSt7__cxx1112basic_stringIcSt11char_traitsIcESaIcEEC1ERKS4_(ptr noundef nonnull align 8 dereferenceable(32) %0, ptr noundef nonnull align 8 dereferenceable(32) %17)
  br label %29

18:                                               ; preds = %14
  %19 = zext nneg i32 %7 to i64
  %20 = getelementptr inbounds [10 x ptr], ptr @_ZZN18cmCTestTestHandler13GetTestStatusB5cxx11ERKNS_17cmCTestTestResultEE8statuses, i64 0, i64 %19
  %21 = load ptr, ptr %20, align 8
  call void @_ZNSaIcEC1Ev(ptr noundef nonnull align 1 dereferenceable(1) %5) #25
  %22 = invoke noundef ptr @_ZNSt7__cxx1112basic_stringIcSt11char_traitsIcESaIcEE13_M_local_dataEv(ptr noundef nonnull align 8 dereferenceable(32) %0)
          to label %.noexc12 unwind label %27

.noexc12:                                         ; preds = %18
  invoke void @_ZNSt7__cxx1112basic_stringIcSt11char_traitsIcESaIcEE12_Alloc_hiderC1EPcRKS3_(ptr noundef nonnull align 8 dereferenceable(8) %0, ptr noundef %22, ptr noundef nonnull align 1 dereferenceable(1) %5)
          to label %.noexc13 unwind label %27

23:                                               ; preds = %.noexc13
  %24 = landingpad { ptr, i32 }
          cleanup
  call void @_ZNSaIcED2Ev(ptr noundef nonnull align 1 dereferenceable(1) %0) #25
  br label %.body

.noexc13:                                         ; preds = %.noexc12
  %25 = call noundef i64 @strlen(ptr noundef nonnull dereferenceable(1) %21) #25
  %26 = getelementptr inbounds i8, ptr %21, i64 %25
  invoke void @_ZNSt7__cxx1112basic_stringIcSt11char_traitsIcESaIcEE12_M_constructIPKcEEvT_S8_St20forward_iterator_tag(ptr noundef nonnull align 8 dereferenceable(32) %0, ptr noundef nonnull %21, ptr noundef nonnull %26)
          to label %_ZNSt7__cxx1112basic_stringIcSt11char_traitsIcESaIcEEC2IS3_EEPKcRKS3_.exit16 unwind label %23

_ZNSt7__cxx1112basic_stringIcSt11char_traitsIcESaIcEEC2IS3_EEPKcRKS3_.exit16: ; preds = %.noexc13
  call void @_ZNSaIcED1Ev(ptr noundef nonnull align 1 dereferenceable(1) %5) #25
  br label %29

27:                                               ; preds = %.noexc12, %18
  %28 = landingpad { ptr, i32 }
          cleanup
  br label %.body

29:                                               ; preds = %_ZNSt7__cxx1112basic_stringIcSt11char_traitsIcESaIcEEC2IS3_EEPKcRKS3_.exit16, %16, %_ZNSt7__cxx1112basic_stringIcSt11char_traitsIcESaIcEEC2IS3_EEPKcRKS3_.exit
  ret void

.body:                                            ; preds = %27, %23, %12, %10
  %.sink = phi ptr [ %4, %10 ], [ %4, %12 ], [ %5, %23 ], [ %5, %27 ]
  %.pn = phi { ptr, i32 } [ %11, %10 ], [ %13, %12 ], [ %24, %23 ], [ %28, %27 ]
  call void @_ZNSaIcED1Ev(ptr noundef nonnull align 1 dereferenceable(1) %.sink) #25
  resume { ptr, i32 } %.pn
}